target datalayout = "e-m:e-p270:32:32-p271:32:32-p272:64:64-i64:64-i128:128-f80:128-n8:16:32:64-S128"
target triple = "x86_64-pc-linux-gnu"

%struct.ParseEnv = type { i32, i32, ptr, ptr, i32, i32, i32, ptr, ptr, ptr, ptr, ptr, i32, i32, i32, i32, [8 x %struct.MemEnv], ptr, i32, i32, i32, i32, ptr, ptr, i32, i32 }
%struct.MemEnv = type { ptr, ptr }
%struct._Node = type { %union.anon.35 }
%union.anon.35 = type { %struct.BagNode }
%struct.BagNode = type { i32, i32, ptr, ptr, i32, %union.anon.37, i32, i32, i32, i32, i32 }
%union.anon.37 = type { %struct.anon.40 }
%struct.anon.40 = type { ptr, ptr }
%struct.anon.36 = type { i32, i32, ptr, ptr }
%struct.ConsAltNode = type { i32, i32, ptr, ptr, ptr }
%struct.anon.38 = type { i32, i32, i32, i32 }
%struct.QuantNode = type { i32, i32, ptr, ptr, i32, i32, i32, i32, ptr, ptr, i32, i32 }
%struct.AnchorNode = type { i32, i32, ptr, ptr, i32, i32, i32, i32, ptr }

; Function Attrs: nounwind uwtable
define internal i32 @recursive_call_check_trav(ptr noundef %0, ptr noundef %1, i32 noundef %2) #0 {
  %4 = alloca i32, align 4
  %5 = alloca ptr, align 8
  %6 = alloca ptr, align 8
  %7 = alloca i32, align 4
  %8 = alloca i32, align 4
  %9 = alloca i32, align 4
  %10 = alloca i32, align 4
  %11 = alloca ptr, align 8
  %12 = alloca i32, align 4
  %13 = alloca i32, align 4
  %14 = alloca ptr, align 8
  store ptr %0, ptr %5, align 8, !tbaa !47
  store ptr %1, ptr %6, align 8, !tbaa !15
  store i32 %2, ptr %7, align 4, !tbaa !4
  call void @llvm.lifetime.start.p0(i64 4, ptr %8) #9
  store i32 0, ptr %8, align 4, !tbaa !4
  %15 = load ptr, ptr %5, align 8, !tbaa !47
  %16 = getelementptr inbounds nuw %struct._Node, ptr %15, i32 0, i32 0
  %17 = getelementptr inbounds nuw %struct.anon.36, ptr %16, i32 0, i32 0
  %18 = load i32, ptr %17, align 8, !tbaa !32
  switch i32 %18, label %236 [
    i32 7, label %19
    i32 8, label %19
    i32 4, label %48
    i32 6, label %70
    i32 5, label %85
  ]

19:                                               ; preds = %3, %3
  call void @llvm.lifetime.start.p0(i64 4, ptr %9) #9
  br label %20

20:                                               ; preds = %38, %19
  %21 = load ptr, ptr %5, align 8, !tbaa !47
  %22 = getelementptr inbounds nuw %struct._Node, ptr %21, i32 0, i32 0
  %23 = getelementptr inbounds nuw %struct.ConsAltNode, ptr %22, i32 0, i32 3
  %24 = load ptr, ptr %23, align 8, !tbaa !32
  %25 = load ptr, ptr %6, align 8, !tbaa !15
  %26 = load i32, ptr %7, align 4, !tbaa !4
  %27 = call i32 @recursive_call_check_trav(ptr noundef %24, ptr noundef %25, i32 noundef %26)
  store i32 %27, ptr %9, align 4, !tbaa !4
  %28 = load i32, ptr %9, align 4, !tbaa !4
  %29 = icmp eq i32 %28, 1
  br i1 %29, label %30, label %31

30:                                               ; preds = %20
  store i32 1, ptr %8, align 4, !tbaa !4
  br label %37

31:                                               ; preds = %20
  %32 = load i32, ptr %9, align 4, !tbaa !4
  %33 = icmp slt i32 %32, 0
  br i1 %33, label %34, label %36

34:                                               ; preds = %31
  %35 = load i32, ptr %9, align 4, !tbaa !4
  store i32 %35, ptr %4, align 4
  store i32 1, ptr %10, align 4
  br label %45

36:                                               ; preds = %31
  br label %37

37:                                               ; preds = %36, %30
  br label %38

38:                                               ; preds = %37
  %39 = load ptr, ptr %5, align 8, !tbaa !47
  %40 = getelementptr inbounds nuw %struct._Node, ptr %39, i32 0, i32 0
  %41 = getelementptr inbounds nuw %struct.ConsAltNode, ptr %40, i32 0, i32 4
  %42 = load ptr, ptr %41, align 8, !tbaa !32
  store ptr %42, ptr %5, align 8, !tbaa !47
  %43 = icmp ne ptr %42, null
  br i1 %43, label %20, label %44, !llvm.loop !183

44:                                               ; preds = %38
  store i32 0, ptr %10, align 4
  br label %45

45:                                               ; preds = %44, %34
  call void @llvm.lifetime.end.p0(i64 4, ptr %9) #9
  %46 = load i32, ptr %10, align 4
  switch i32 %46, label %239 [
    i32 0, label %47
  ]

47:                                               ; preds = %45
  br label %237

48:                                               ; preds = %3
  %49 = load ptr, ptr %5, align 8, !tbaa !47
  %50 = getelementptr inbounds nuw %struct._Node, ptr %49, i32 0, i32 0
  %51 = getelementptr inbounds nuw %struct.anon.36, ptr %50, i32 0, i32 3
  %52 = load ptr, ptr %51, align 8, !tbaa !32
  %53 = load ptr, ptr %6, align 8, !tbaa !15
  %54 = load i32, ptr %7, align 4, !tbaa !4
  %55 = call i32 @recursive_call_check_trav(ptr noundef %52, ptr noundef %53, i32 noundef %54)
  store i32 %55, ptr %8, align 4, !tbaa !4
  %56 = load ptr, ptr %5, align 8, !tbaa !47
  %57 = getelementptr inbounds nuw %struct._Node, ptr %56, i32 0, i32 0
  %58 = getelementptr inbounds nuw %struct.QuantNode, ptr %57, i32 0, i32 5
  %59 = load i32, ptr %58, align 4, !tbaa !32
  %60 = icmp eq i32 %59, 0
  br i1 %60, label %61, label %69

61:                                               ; preds = %48
  %62 = load i32, ptr %8, align 4, !tbaa !4
  %63 = icmp eq i32 %62, 1
  br i1 %63, label %64, label %68

64:                                               ; preds = %61
  %65 = load ptr, ptr %5, align 8, !tbaa !47
  %66 = getelementptr inbounds nuw %struct._Node, ptr %65, i32 0, i32 0
  %67 = getelementptr inbounds nuw %struct.QuantNode, ptr %66, i32 0, i32 10
  store i32 1, ptr %67, align 8, !tbaa !32
  br label %68

68:                                               ; preds = %64, %61
  br label %69

69:                                               ; preds = %68, %48
  br label %237

70:                                               ; preds = %3
  call void @llvm.lifetime.start.p0(i64 8, ptr %11) #9
  %71 = load ptr, ptr %5, align 8, !tbaa !47
  %72 = getelementptr inbounds nuw %struct._Node, ptr %71, i32 0, i32 0
  store ptr %72, ptr %11, align 8, !tbaa !15
  %73 = load ptr, ptr %11, align 8, !tbaa !15
  %74 = getelementptr inbounds nuw %struct.AnchorNode, ptr %73, i32 0, i32 4
  %75 = load i32, ptr %74, align 8, !tbaa !184
  %76 = icmp slt i32 %75, 16
  br i1 %76, label %77, label %84

77:                                               ; preds = %70
  %78 = load ptr, ptr %11, align 8, !tbaa !15
  %79 = getelementptr inbounds nuw %struct.AnchorNode, ptr %78, i32 0, i32 3
  %80 = load ptr, ptr %79, align 8, !tbaa !186
  %81 = load ptr, ptr %6, align 8, !tbaa !15
  %82 = load i32, ptr %7, align 4, !tbaa !4
  %83 = call i32 @recursive_call_check_trav(ptr noundef %80, ptr noundef %81, i32 noundef %82)
  store i32 %83, ptr %8, align 4, !tbaa !4
  br label %84

84:                                               ; preds = %77, %70
  call void @llvm.lifetime.end.p0(i64 8, ptr %11) #9
  br label %237

85:                                               ; preds = %3
  call void @llvm.lifetime.start.p0(i64 4, ptr %12) #9
  call void @llvm.lifetime.start.p0(i64 4, ptr %13) #9
  call void @llvm.lifetime.start.p0(i64 8, ptr %14) #9
  %86 = load ptr, ptr %5, align 8, !tbaa !47
  %87 = getelementptr inbounds nuw %struct._Node, ptr %86, i32 0, i32 0
  store ptr %87, ptr %14, align 8, !tbaa !15
  %88 = load ptr, ptr %14, align 8, !tbaa !15
  %89 = getelementptr inbounds nuw %struct.BagNode, ptr %88, i32 0, i32 4
  %90 = load i32, ptr %89, align 8, !tbaa !156
  %91 = icmp eq i32 %90, 0
  br i1 %91, label %92, label %171

92:                                               ; preds = %85
  %93 = load ptr, ptr %5, align 8, !tbaa !47
  %94 = getelementptr inbounds nuw %struct._Node, ptr %93, i32 0, i32 0
  %95 = getelementptr inbounds nuw %struct.anon.36, ptr %94, i32 0, i32 1
  %96 = load i32, ptr %95, align 4, !tbaa !32
  %97 = and i32 %96, 128
  %98 = icmp ne i32 %97, 0
  br i1 %98, label %99, label %100

99:                                               ; preds = %92
  store i32 1, ptr %8, align 4, !tbaa !4
  br label %105

100:                                              ; preds = %92
  %101 = load i32, ptr %7, align 4, !tbaa !4
  %102 = and i32 %101, 1
  %103 = icmp ne i32 %102, 0
  br i1 %103, label %104, label %169

104:                                              ; preds = %100
  br label %105

105:                                              ; preds = %104, %99
  %106 = load ptr, ptr %5, align 8, !tbaa !47
  %107 = getelementptr inbounds nuw %struct._Node, ptr %106, i32 0, i32 0
  %108 = getelementptr inbounds nuw %struct.anon.36, ptr %107, i32 0, i32 1
  %109 = load i32, ptr %108, align 4, !tbaa !32
  %110 = and i32 %109, 64
  %111 = icmp ne i32 %110, 0
  br i1 %111, label %168, label %112

112:                                              ; preds = %105
  %113 = load ptr, ptr %5, align 8, !tbaa !47
  %114 = getelementptr inbounds nuw %struct._Node, ptr %113, i32 0, i32 0
  %115 = getelementptr inbounds nuw %struct.anon.36, ptr %114, i32 0, i32 1
  %116 = load i32, ptr %115, align 4, !tbaa !32
  %117 = or i32 %116, 8
  store i32 %117, ptr %115, align 4, !tbaa !32
  %118 = load ptr, ptr %5, align 8, !tbaa !47
  %119 = getelementptr inbounds nuw %struct._Node, ptr %118, i32 0, i32 0
  %120 = getelementptr inbounds nuw %struct.anon.36, ptr %119, i32 0, i32 3
  %121 = load ptr, ptr %120, align 8, !tbaa !32
  %122 = call i32 @recursive_call_check(ptr noundef %121)
  store i32 %122, ptr %12, align 4, !tbaa !4
  %123 = load i32, ptr %12, align 4, !tbaa !4
  %124 = icmp ne i32 %123, 0
  br i1 %124, label %125, label %162

125:                                              ; preds = %112
  %126 = load ptr, ptr %5, align 8, !tbaa !47
  %127 = getelementptr inbounds nuw %struct._Node, ptr %126, i32 0, i32 0
  %128 = getelementptr inbounds nuw %struct.anon.36, ptr %127, i32 0, i32 1
  %129 = load i32, ptr %128, align 4, !tbaa !32
  %130 = or i32 %129, 64
  store i32 %130, ptr %128, align 4, !tbaa !32
  br label %131

131:                                              ; preds = %125
  %132 = load ptr, ptr %14, align 8, !tbaa !15
  %133 = getelementptr inbounds nuw %struct.BagNode, ptr %132, i32 0, i32 5
  %134 = getelementptr inbounds nuw %struct.anon.38, ptr %133, i32 0, i32 0
  %135 = load i32, ptr %134, align 8, !tbaa !32
  %136 = icmp slt i32 %135, 32
  br i1 %136, label %137, label %154

137:                                              ; preds = %131
  %138 = load ptr, ptr %14, align 8, !tbaa !15
  %139 = getelementptr inbounds nuw %struct.BagNode, ptr %138, i32 0, i32 5
  %140 = getelementptr inbounds nuw %struct.anon.38, ptr %139, i32 0, i32 0
  %141 = load i32, ptr %140, align 8, !tbaa !32
  %142 = icmp ne i32 %141, 0
  br i1 %142, label %143, label %153

143:                                              ; preds = %137
  %144 = load ptr, ptr %14, align 8, !tbaa !15
  %145 = getelementptr inbounds nuw %struct.BagNode, ptr %144, i32 0, i32 5
  %146 = getelementptr inbounds nuw %struct.anon.38, ptr %145, i32 0, i32 0
  %147 = load i32, ptr %146, align 8, !tbaa !32
  %148 = shl i32 1, %147
  %149 = load ptr, ptr %6, align 8, !tbaa !15
  %150 = getelementptr inbounds nuw %struct.ParseEnv, ptr %149, i32 0, i32 5
  %151 = load i32, ptr %150, align 4, !tbaa !43
  %152 = or i32 %151, %148
  store i32 %152, ptr %150, align 4, !tbaa !43
  br label %153

153:                                              ; preds = %143, %137
  br label %159

154:                                              ; preds = %131
  %155 = load ptr, ptr %6, align 8, !tbaa !15
  %156 = getelementptr inbounds nuw %struct.ParseEnv, ptr %155, i32 0, i32 5
  %157 = load i32, ptr %156, align 4, !tbaa !43
  %158 = or i32 %157, 1
  store i32 %158, ptr %156, align 4, !tbaa !43
  br label %159

159:                                              ; preds = %154, %153
  br label %160

160:                                              ; preds = %159
  br label %161

161:                                              ; preds = %160
  br label %162

162:                                              ; preds = %161, %112
  %163 = load ptr, ptr %5, align 8, !tbaa !47
  %164 = getelementptr inbounds nuw %struct._Node, ptr %163, i32 0, i32 0
  %165 = getelementptr inbounds nuw %struct.anon.36, ptr %164, i32 0, i32 1
  %166 = load i32, ptr %165, align 4, !tbaa !32
  %167 = and i32 %166, -9
  store i32 %167, ptr %165, align 4, !tbaa !32
  br label %168

168:                                              ; preds = %162, %105
  br label %169

169:                                              ; preds = %168, %100
  br label %170

170:                                              ; preds = %169
  br label %171

171:                                              ; preds = %170, %85
  %172 = load i32, ptr %7, align 4, !tbaa !4
  store i32 %172, ptr %13, align 4, !tbaa !4
  %173 = load ptr, ptr %5, align 8, !tbaa !47
  %174 = getelementptr inbounds nuw %struct._Node, ptr %173, i32 0, i32 0
  %175 = getelementptr inbounds nuw %struct.anon.36, ptr %174, i32 0, i32 1
  %176 = load i32, ptr %175, align 4, !tbaa !32
  %177 = and i32 %176, 64
  %178 = icmp ne i32 %177, 0
  br i1 %178, label %179, label %182

179:                                              ; preds = %171
  %180 = load i32, ptr %13, align 4, !tbaa !4
  %181 = or i32 %180, 1
  store i32 %181, ptr %13, align 4, !tbaa !4
  br label %182

182:                                              ; preds = %179, %171
  %183 = load ptr, ptr %5, align 8, !tbaa !47
  %184 = getelementptr inbounds nuw %struct._Node, ptr %183, i32 0, i32 0
  %185 = getelementptr inbounds nuw %struct.anon.36, ptr %184, i32 0, i32 3
  %186 = load ptr, ptr %185, align 8, !tbaa !32
  %187 = load ptr, ptr %6, align 8, !tbaa !15
  %188 = load i32, ptr %13, align 4, !tbaa !4
  %189 = call i32 @recursive_call_check_trav(ptr noundef %186, ptr noundef %187, i32 noundef %188)
  store i32 %189, ptr %12, align 4, !tbaa !4
  %190 = load i32, ptr %12, align 4, !tbaa !4
  %191 = icmp eq i32 %190, 1
  br i1 %191, label %192, label %193

192:                                              ; preds = %182
  store i32 1, ptr %8, align 4, !tbaa !4
  br label %193

193:                                              ; preds = %192, %182
  %194 = load ptr, ptr %14, align 8, !tbaa !15
  %195 = getelementptr inbounds nuw %struct.BagNode, ptr %194, i32 0, i32 4
  %196 = load i32, ptr %195, align 8, !tbaa !156
  %197 = icmp eq i32 %196, 3
  br i1 %197, label %198, label %235

198:                                              ; preds = %193
  %199 = load ptr, ptr %14, align 8, !tbaa !15
  %200 = getelementptr inbounds nuw %struct.BagNode, ptr %199, i32 0, i32 5
  %201 = getelementptr inbounds nuw %struct.anon.40, ptr %200, i32 0, i32 0
  %202 = load ptr, ptr %201, align 8, !tbaa !32
  %203 = icmp ne ptr %202, null
  br i1 %203, label %204, label %216

204:                                              ; preds = %198
  %205 = load ptr, ptr %14, align 8, !tbaa !15
  %206 = getelementptr inbounds nuw %struct.BagNode, ptr %205, i32 0, i32 5
  %207 = getelementptr inbounds nuw %struct.anon.40, ptr %206, i32 0, i32 0
  %208 = load ptr, ptr %207, align 8, !tbaa !32
  %209 = load ptr, ptr %6, align 8, !tbaa !15
  %210 = load i32, ptr %13, align 4, !tbaa !4
  %211 = call i32 @recursive_call_check_trav(ptr noundef %208, ptr noundef %209, i32 noundef %210)
  store i32 %211, ptr %12, align 4, !tbaa !4
  %212 = load i32, ptr %12, align 4, !tbaa !4
  %213 = icmp eq i32 %212, 1
  br i1 %213, label %214, label %215

214:                                              ; preds = %204
  store i32 1, ptr %8, align 4, !tbaa !4
  br label %215

215:                                              ; preds = %214, %204
  br label %216

216:                                              ; preds = %215, %198
  %217 = load ptr, ptr %14, align 8, !tbaa !15
  %218 = getelementptr inbounds nuw %struct.BagNode, ptr %217, i32 0, i32 5
  %219 = getelementptr inbounds nuw %struct.anon.40, ptr %218, i32 0, i32 1
  %220 = load ptr, ptr %219, align 8, !tbaa !32
  %221 = icmp ne ptr %220, null
  br i1 %221, label %222, label %234

222:                                              ; preds = %216
  %223 = load ptr, ptr %14, align 8, !tbaa !15
  %224 = getelementptr inbounds nuw %struct.BagNode, ptr %223, i32 0, i32 5
  %225 = getelementptr inbounds nuw %struct.anon.40, ptr %224, i32 0, i32 1
  %226 = load ptr, ptr %225, align 8, !tbaa !32
  %227 = load ptr, ptr %6, align 8, !tbaa !15
  %228 = load i32, ptr %13, align 4, !tbaa !4
  %229 = call i32 @recursive_call_check_trav(ptr noundef %226, ptr noundef %227, i32 noundef %228)
  store i32 %229, ptr %12, align 4, !tbaa !4
  %230 = load i32, ptr %12, align 4, !tbaa !4
  %231 = icmp eq i32 %230, 1
  br i1 %231, label %232, label %233

232:                                              ; preds = %222
  store i32 1, ptr %8, align 4, !tbaa !4
  br label %233

233:                                              ; preds = %232, %222
  br label %234

234:                                              ; preds = %233, %216
  br label %235

235:                                              ; preds = %234, %193
  call void @llvm.lifetime.end.p0(i64 8, ptr %14) #9
  call void @llvm.lifetime.end.p0(i64 4, ptr %13) #9
  call void @llvm.lifetime.end.p0(i64 4, ptr %12) #9
  br label %237

236:                                              ; preds = %3
  br label %237

237:                                              ; preds = %236, %235, %84, %69, %47
  %238 = load i32, ptr %8, align 4, !tbaa !4
  store i32 %238, ptr %4, align 4
  store i32 1, ptr %10, align 4
  br label %239

239:                                              ; preds = %237, %45
  call void @llvm.lifetime.end.p0(i64 4, ptr %8) #9
  %240 = load i32, ptr %4, align 4
  ret i32 %240
}